; Function Attrs: nounwind uwtable
define hidden void @zim_DOM_Document_normalizeDocument(ptr nocapture noundef readonly %0, ptr nocapture noundef readnone %1) local_unnamed_addr #0 {
  %3 = getelementptr inbounds i8, ptr %0, i64 44
  %4 = load i32, ptr %3, align 4
  %.not = icmp eq i32 %4, 0
  br i1 %.not, label %.critedge, label %5

5:                                                ; preds = %2
  tail call void @zend_wrong_parameters_none_error() #10
  %6 = load ptr, ptr getelementptr inbounds (%struct._zend_executor_globals, ptr @executor_globals, i64 0, i32 50), align 8
  %7 = icmp ne ptr %6, null
  tail call void @llvm.assume(i1 %7)
  br label %30

.critedge:                                        ; preds = %2
  %8 = getelementptr inbounds i8, ptr %0, i64 32
  %9 = load ptr, ptr %8, align 8
  %10 = getelementptr inbounds i8, ptr %9, i64 -24
  %11 = load ptr, ptr %10, align 8
  %12 = icmp eq ptr %11, null
  br i1 %12, label %13, label %21

13:                                               ; preds = %.critedge
  %14 = getelementptr inbounds i8, ptr %9, i64 16
  %15 = load ptr, ptr %14, align 8
  %16 = getelementptr inbounds i8, ptr %15, i64 8
  %17 = load ptr, ptr %16, align 8
  %18 = getelementptr inbounds i8, ptr %17, i64 24
  tail call void (ptr, ptr, ...) @zend_throw_error(ptr noundef null, ptr noundef nonnull @.str.2, ptr noundef nonnull %18) #10
  %19 = load ptr, ptr getelementptr inbounds (%struct._zend_executor_globals, ptr @executor_globals, i64 0, i32 50), align 8
  %20 = icmp ne ptr %19, null
  tail call void @llvm.assume(i1 %20)
  br label %30

21:                                               ; preds = %.critedge
  %22 = load ptr, ptr %11, align 8
  %23 = getelementptr inbounds i8, ptr %9, i64 -16
  %24 = load ptr, ptr %23, align 8
  %.not11 = icmp eq ptr %24, null
  br i1 %.not11, label %29, label %25

25:                                               ; preds = %21
  %26 = getelementptr inbounds i8, ptr %24, i64 16
  %27 = load i64, ptr %26, align 8
  %28 = add i64 %27, 1
  store i64 %28, ptr %26, align 8
  br label %29

29:                                               ; preds = %21, %25
  tail call void @dom_normalize(ptr noundef %22) #10
  br label %30

30:                                               ; preds = %29, %13, %5
  ret void
}